target datalayout = "e-m:e-p270:32:32-p271:32:32-p272:64:64-i64:64-i128:128-f80:128-n8:16:32:64-S128"
target triple = "x86_64-pc-linux-gnu"

%"class.std::__shared_count" = type { ptr }
%"class.arrow::Status" = type { ptr }
%"struct.arrow::Status::State" = type { i8, i8, %"class.std::__cxx11::basic_string", %"class.std::shared_ptr.56" }
%"class.std::__cxx11::basic_string" = type { %"struct.std::__cxx11::basic_string<char>::_Alloc_hider", i64, %union.anon }
%"struct.std::__cxx11::basic_string<char>::_Alloc_hider" = type { ptr }
%union.anon = type { i64, [8 x i8] }
%"class.std::shared_ptr.56" = type { %"class.std::__shared_ptr.57" }
%"class.std::__shared_ptr.57" = type { ptr, %"class.std::__shared_count" }

@_ZN5arrow7compute8internal12_GLOBAL__N_127kScalarAggregateOptionsTypeE = internal global ptr null, align 8
@_ZN5arrow7compute8internal12_GLOBAL__N_117kCountOptionsTypeE = internal global ptr null, align 8
@_ZN5arrow7compute8internal12_GLOBAL__N_116kModeOptionsTypeE = internal global ptr null, align 8
@_ZN5arrow7compute8internal12_GLOBAL__N_120kVarianceOptionsTypeE = internal global ptr null, align 8
@_ZN5arrow7compute8internal12_GLOBAL__N_120kQuantileOptionsTypeE = internal global ptr null, align 8
@_ZN5arrow7compute8internal12_GLOBAL__N_119kTDigestOptionsTypeE = internal global ptr null, align 8
@_ZN5arrow7compute8internal12_GLOBAL__N_117kIndexOptionsTypeE = internal global ptr null, align 8

; Function Attrs: mustprogress nounwind uwtable
define linkonce_odr void @_ZN5arrow4util18EqualityComparableINS_6StatusEED2Ev(ptr noundef nonnull align 1 dereferenceable(1) %0) unnamed_addr #0 comdat align 2 {
  %2 = alloca ptr, align 8
  store ptr %0, ptr %2, align 8, !tbaa !276
  ret void
}

; Function Attrs: mustprogress nounwind uwtable
define linkonce_odr void @_ZN5arrow4util19ToStringOstreamableINS_6StatusEED2Ev(ptr noundef nonnull align 1 dereferenceable(1) %0) unnamed_addr #0 comdat align 2 {
  %2 = alloca ptr, align 8
  store ptr %0, ptr %2, align 8, !tbaa !274
  ret void
}

; Function Attrs: mustprogress nounwind uwtable
define linkonce_odr void @_ZN5arrow6StatusD2Ev(ptr noundef nonnull align 8 dereferenceable(8) %0) unnamed_addr #0 comdat align 2 {
  %2 = alloca ptr, align 8
  store ptr %0, ptr %2, align 8, !tbaa !217
  %3 = load ptr, ptr %2, align 8
  %4 = getelementptr inbounds nuw %"class.arrow::Status", ptr %3, i32 0, i32 0
  %5 = load ptr, ptr %4, align 8, !tbaa !219
  %6 = icmp ne ptr %5, null
  %7 = xor i1 %6, true
  %8 = xor i1 %7, true
  %9 = zext i1 %8 to i64
  %10 = call i64 @llvm.expect.i64(i64 %9, i64 0)
  %11 = icmp ne i64 %10, 0
  br i1 %11, label %12, label %20

12:                                               ; preds = %1
  %13 = getelementptr inbounds nuw %"class.arrow::Status", ptr %3, i32 0, i32 0
  %14 = load ptr, ptr %13, align 8, !tbaa !219
  %15 = getelementptr inbounds nuw %"struct.arrow::Status::State", ptr %14, i32 0, i32 1
  %16 = load i8, ptr %15, align 1, !tbaa !222, !range !139, !noundef !140
  %17 = trunc i8 %16 to i1
  br i1 %17, label %19, label %18

18:                                               ; preds = %12
  call void @_ZN5arrow6Status11DeleteStateEv(ptr noundef nonnull align 8 dereferenceable(8) %3) #18
  br label %19

19:                                               ; preds = %18, %12
  br label %20

20:                                               ; preds = %19, %1
  call void @_ZN5arrow4util19ToStringOstreamableINS_6StatusEED2Ev(ptr noundef nonnull align 1 dereferenceable(1) %3) #18
  call void @_ZN5arrow4util18EqualityComparableINS_6StatusEED2Ev(ptr noundef nonnull align 1 dereferenceable(1) %3) #18
  ret void
}

; Function Attrs: mustprogress uwtable
define void @_ZN5arrow7compute8internal24RegisterAggregateOptionsEPNS0_16FunctionRegistryE(ptr noundef %0) #2 {
  %2 = alloca ptr, align 8
  %3 = alloca %"class.arrow::Status", align 8
  %4 = alloca %"class.arrow::Status", align 8
  %5 = alloca %"class.arrow::Status", align 8
  %6 = alloca %"class.arrow::Status", align 8
  %7 = alloca %"class.arrow::Status", align 8
  %8 = alloca %"class.arrow::Status", align 8
  %9 = alloca %"class.arrow::Status", align 8
  store ptr %0, ptr %2, align 8, !tbaa !207
  %10 = load ptr, ptr %2, align 8, !tbaa !207
  %11 = load ptr, ptr @_ZN5arrow7compute8internal12_GLOBAL__N_127kScalarAggregateOptionsTypeE, align 8, !tbaa !53
  call void @_ZN5arrow7compute16FunctionRegistry22AddFunctionOptionsTypeEPKNS0_19FunctionOptionsTypeEb(ptr dead_on_unwind writable sret(%"class.arrow::Status") align 8 %3, ptr noundef nonnull align 8 dereferenceable(8) %10, ptr noundef %11, i1 noundef zeroext false)
  call void @_ZN5arrow6StatusD2Ev(ptr noundef nonnull align 8 dereferenceable(8) %3) #18
  br label %12

12:                                               ; preds = %13, %1
  br i1 false, label %13, label %14

13:                                               ; preds = %12
  br label %12, !llvm.loop !209

14:                                               ; preds = %12
  %15 = load ptr, ptr %2, align 8, !tbaa !207
  %16 = load ptr, ptr @_ZN5arrow7compute8internal12_GLOBAL__N_117kCountOptionsTypeE, align 8, !tbaa !53
  call void @_ZN5arrow7compute16FunctionRegistry22AddFunctionOptionsTypeEPKNS0_19FunctionOptionsTypeEb(ptr dead_on_unwind writable sret(%"class.arrow::Status") align 8 %4, ptr noundef nonnull align 8 dereferenceable(8) %15, ptr noundef %16, i1 noundef zeroext false)
  call void @_ZN5arrow6StatusD2Ev(ptr noundef nonnull align 8 dereferenceable(8) %4) #18
  br label %17

17:                                               ; preds = %18, %14
  br i1 false, label %18, label %19

18:                                               ; preds = %17
  br label %17, !llvm.loop !211

19:                                               ; preds = %17
  %20 = load ptr, ptr %2, align 8, !tbaa !207
  %21 = load ptr, ptr @_ZN5arrow7compute8internal12_GLOBAL__N_116kModeOptionsTypeE, align 8, !tbaa !53
  call void @_ZN5arrow7compute16FunctionRegistry22AddFunctionOptionsTypeEPKNS0_19FunctionOptionsTypeEb(ptr dead_on_unwind writable sret(%"class.arrow::Status") align 8 %5, ptr noundef nonnull align 8 dereferenceable(8) %20, ptr noundef %21, i1 noundef zeroext false)
  call void @_ZN5arrow6StatusD2Ev(ptr noundef nonnull align 8 dereferenceable(8) %5) #18
  br label %22

22:                                               ; preds = %23, %19
  br i1 false, label %23, label %24

23:                                               ; preds = %22
  br label %22, !llvm.loop !212

24:                                               ; preds = %22
  %25 = load ptr, ptr %2, align 8, !tbaa !207
  %26 = load ptr, ptr @_ZN5arrow7compute8internal12_GLOBAL__N_120kVarianceOptionsTypeE, align 8, !tbaa !53
  call void @_ZN5arrow7compute16FunctionRegistry22AddFunctionOptionsTypeEPKNS0_19FunctionOptionsTypeEb(ptr dead_on_unwind writable sret(%"class.arrow::Status") align 8 %6, ptr noundef nonnull align 8 dereferenceable(8) %25, ptr noundef %26, i1 noundef zeroext false)
  call void @_ZN5arrow6StatusD2Ev(ptr noundef nonnull align 8 dereferenceable(8) %6) #18
  br label %27

27:                                               ; preds = %28, %24
  br i1 false, label %28, label %29

28:                                               ; preds = %27
  br label %27, !llvm.loop !213

29:                                               ; preds = %27
  %30 = load ptr, ptr %2, align 8, !tbaa !207
  %31 = load ptr, ptr @_ZN5arrow7compute8internal12_GLOBAL__N_120kQuantileOptionsTypeE, align 8, !tbaa !53
  call void @_ZN5arrow7compute16FunctionRegistry22AddFunctionOptionsTypeEPKNS0_19FunctionOptionsTypeEb(ptr dead_on_unwind writable sret(%"class.arrow::Status") align 8 %7, ptr noundef nonnull align 8 dereferenceable(8) %30, ptr noundef %31, i1 noundef zeroext false)
  call void @_ZN5arrow6StatusD2Ev(ptr noundef nonnull align 8 dereferenceable(8) %7) #18
  br label %32

32:                                               ; preds = %33, %29
  br i1 false, label %33, label %34

33:                                               ; preds = %32
  br label %32, !llvm.loop !214

34:                                               ; preds = %32
  %35 = load ptr, ptr %2, align 8, !tbaa !207
  %36 = load ptr, ptr @_ZN5arrow7compute8internal12_GLOBAL__N_119kTDigestOptionsTypeE, align 8, !tbaa !53
  call void @_ZN5arrow7compute16FunctionRegistry22AddFunctionOptionsTypeEPKNS0_19FunctionOptionsTypeEb(ptr dead_on_unwind writable sret(%"class.arrow::Status") align 8 %8, ptr noundef nonnull align 8 dereferenceable(8) %35, ptr noundef %36, i1 noundef zeroext false)
  call void @_ZN5arrow6StatusD2Ev(ptr noundef nonnull align 8 dereferenceable(8) %8) #18
  br label %37

37:                                               ; preds = %38, %34
  br i1 false, label %38, label %39

38:                                               ; preds = %37
  br label %37, !llvm.loop !215

39:                                               ; preds = %37
  %40 = load ptr, ptr %2, align 8, !tbaa !207
  %41 = load ptr, ptr @_ZN5arrow7compute8internal12_GLOBAL__N_117kIndexOptionsTypeE, align 8, !tbaa !53
  call void @_ZN5arrow7compute16FunctionRegistry22AddFunctionOptionsTypeEPKNS0_19FunctionOptionsTypeEb(ptr dead_on_unwind writable sret(%"class.arrow::Status") align 8 %9, ptr noundef nonnull align 8 dereferenceable(8) %40, ptr noundef %41, i1 noundef zeroext false)
  call void @_ZN5arrow6StatusD2Ev(ptr noundef nonnull align 8 dereferenceable(8) %9) #18
  br label %42

42:                                               ; preds = %43, %39
  br i1 false, label %43, label %44

43:                                               ; preds = %42
  br label %42, !llvm.loop !216

44:                                               ; preds = %42
  ret void
}