; Function Attrs: mustprogress uwtable
define void @_ZN5arrow7compute8internal24RegisterAggregateOptionsEPNS0_16FunctionRegistryE(ptr noundef nonnull %0) local_unnamed_addr #3 {
  %2 = alloca %"class.arrow::Status", align 8
  %3 = alloca %"class.arrow::Status", align 8
  %4 = alloca %"class.arrow::Status", align 8
  %5 = alloca %"class.arrow::Status", align 8
  %6 = alloca %"class.arrow::Status", align 8
  %7 = alloca %"class.arrow::Status", align 8
  %8 = alloca %"class.arrow::Status", align 8
  %9 = load ptr, ptr @_ZN5arrow7compute8internal12_GLOBAL__N_127kScalarAggregateOptionsTypeE, align 8, !tbaa !32
  call void @_ZN5arrow7compute16FunctionRegistry22AddFunctionOptionsTypeEPKNS0_19FunctionOptionsTypeEb(ptr dead_on_unwind nonnull writable sret(%"class.arrow::Status") align 8 %2, ptr noundef nonnull align 8 dereferenceable(8) %0, ptr noundef %9, i1 noundef zeroext false)
  %10 = load ptr, ptr %2, align 8, !tbaa !84
  %.not.i = icmp eq ptr %10, null
  br i1 %.not.i, label %_ZN5arrow6StatusD2Ev.exit, label %11, !prof !87

11:                                               ; preds = %1
  %12 = getelementptr inbounds nuw i8, ptr %10, i64 1
  %13 = load i8, ptr %12, align 1, !tbaa !88, !range !97, !noundef !98
  %14 = trunc nuw i8 %13 to i1
  br i1 %14, label %_ZN5arrow6StatusD2Ev.exit, label %15

15:                                               ; preds = %11
  call void @_ZN5arrow6Status11DeleteStateEv(ptr noundef nonnull align 8 dereferenceable(8) %2) #24
  br label %_ZN5arrow6StatusD2Ev.exit

_ZN5arrow6StatusD2Ev.exit:                        ; preds = %1, %11, %15
  %16 = load ptr, ptr @_ZN5arrow7compute8internal12_GLOBAL__N_117kCountOptionsTypeE, align 8, !tbaa !32
  call void @_ZN5arrow7compute16FunctionRegistry22AddFunctionOptionsTypeEPKNS0_19FunctionOptionsTypeEb(ptr dead_on_unwind nonnull writable sret(%"class.arrow::Status") align 8 %3, ptr noundef nonnull align 8 dereferenceable(8) %0, ptr noundef %16, i1 noundef zeroext false)
  %17 = load ptr, ptr %3, align 8, !tbaa !84
  %.not.i7 = icmp eq ptr %17, null
  br i1 %.not.i7, label %_ZN5arrow6StatusD2Ev.exit8, label %18, !prof !87

18:                                               ; preds = %_ZN5arrow6StatusD2Ev.exit
  %19 = getelementptr inbounds nuw i8, ptr %17, i64 1
  %20 = load i8, ptr %19, align 1, !tbaa !88, !range !97, !noundef !98
  %21 = trunc nuw i8 %20 to i1
  br i1 %21, label %_ZN5arrow6StatusD2Ev.exit8, label %22

22:                                               ; preds = %18
  call void @_ZN5arrow6Status11DeleteStateEv(ptr noundef nonnull align 8 dereferenceable(8) %3) #24
  br label %_ZN5arrow6StatusD2Ev.exit8

_ZN5arrow6StatusD2Ev.exit8:                       ; preds = %_ZN5arrow6StatusD2Ev.exit, %18, %22
  %23 = load ptr, ptr @_ZN5arrow7compute8internal12_GLOBAL__N_116kModeOptionsTypeE, align 8, !tbaa !32
  call void @_ZN5arrow7compute16FunctionRegistry22AddFunctionOptionsTypeEPKNS0_19FunctionOptionsTypeEb(ptr dead_on_unwind nonnull writable sret(%"class.arrow::Status") align 8 %4, ptr noundef nonnull align 8 dereferenceable(8) %0, ptr noundef %23, i1 noundef zeroext false)
  %24 = load ptr, ptr %4, align 8, !tbaa !84
  %.not.i9 = icmp eq ptr %24, null
  br i1 %.not.i9, label %_ZN5arrow6StatusD2Ev.exit10, label %25, !prof !87

25:                                               ; preds = %_ZN5arrow6StatusD2Ev.exit8
  %26 = getelementptr inbounds nuw i8, ptr %24, i64 1
  %27 = load i8, ptr %26, align 1, !tbaa !88, !range !97, !noundef !98
  %28 = trunc nuw i8 %27 to i1
  br i1 %28, label %_ZN5arrow6StatusD2Ev.exit10, label %29

29:                                               ; preds = %25
  call void @_ZN5arrow6Status11DeleteStateEv(ptr noundef nonnull align 8 dereferenceable(8) %4) #24
  br label %_ZN5arrow6StatusD2Ev.exit10

_ZN5arrow6StatusD2Ev.exit10:                      ; preds = %_ZN5arrow6StatusD2Ev.exit8, %25, %29
  %30 = load ptr, ptr @_ZN5arrow7compute8internal12_GLOBAL__N_120kVarianceOptionsTypeE, align 8, !tbaa !32
  call void @_ZN5arrow7compute16FunctionRegistry22AddFunctionOptionsTypeEPKNS0_19FunctionOptionsTypeEb(ptr dead_on_unwind nonnull writable sret(%"class.arrow::Status") align 8 %5, ptr noundef nonnull align 8 dereferenceable(8) %0, ptr noundef %30, i1 noundef zeroext false)
  %31 = load ptr, ptr %5, align 8, !tbaa !84
  %.not.i11 = icmp eq ptr %31, null
  br i1 %.not.i11, label %_ZN5arrow6StatusD2Ev.exit12, label %32, !prof !87

32:                                               ; preds = %_ZN5arrow6StatusD2Ev.exit10
  %33 = getelementptr inbounds nuw i8, ptr %31, i64 1
  %34 = load i8, ptr %33, align 1, !tbaa !88, !range !97, !noundef !98
  %35 = trunc nuw i8 %34 to i1
  br i1 %35, label %_ZN5arrow6StatusD2Ev.exit12, label %36

36:                                               ; preds = %32
  call void @_ZN5arrow6Status11DeleteStateEv(ptr noundef nonnull align 8 dereferenceable(8) %5) #24
  br label %_ZN5arrow6StatusD2Ev.exit12

_ZN5arrow6StatusD2Ev.exit12:                      ; preds = %_ZN5arrow6StatusD2Ev.exit10, %32, %36
  %37 = load ptr, ptr @_ZN5arrow7compute8internal12_GLOBAL__N_120kQuantileOptionsTypeE, align 8, !tbaa !32
  call void @_ZN5arrow7compute16FunctionRegistry22AddFunctionOptionsTypeEPKNS0_19FunctionOptionsTypeEb(ptr dead_on_unwind nonnull writable sret(%"class.arrow::Status") align 8 %6, ptr noundef nonnull align 8 dereferenceable(8) %0, ptr noundef %37, i1 noundef zeroext false)
  %38 = load ptr, ptr %6, align 8, !tbaa !84
  %.not.i13 = icmp eq ptr %38, null
  br i1 %.not.i13, label %_ZN5arrow6StatusD2Ev.exit14, label %39, !prof !87

39:                                               ; preds = %_ZN5arrow6StatusD2Ev.exit12
  %40 = getelementptr inbounds nuw i8, ptr %38, i64 1
  %41 = load i8, ptr %40, align 1, !tbaa !88, !range !97, !noundef !98
  %42 = trunc nuw i8 %41 to i1
  br i1 %42, label %_ZN5arrow6StatusD2Ev.exit14, label %43

43:                                               ; preds = %39
  call void @_ZN5arrow6Status11DeleteStateEv(ptr noundef nonnull align 8 dereferenceable(8) %6) #24
  br label %_ZN5arrow6StatusD2Ev.exit14

_ZN5arrow6StatusD2Ev.exit14:                      ; preds = %_ZN5arrow6StatusD2Ev.exit12, %39, %43
  %44 = load ptr, ptr @_ZN5arrow7compute8internal12_GLOBAL__N_119kTDigestOptionsTypeE, align 8, !tbaa !32
  call void @_ZN5arrow7compute16FunctionRegistry22AddFunctionOptionsTypeEPKNS0_19FunctionOptionsTypeEb(ptr dead_on_unwind nonnull writable sret(%"class.arrow::Status") align 8 %7, ptr noundef nonnull align 8 dereferenceable(8) %0, ptr noundef %44, i1 noundef zeroext false)
  %45 = load ptr, ptr %7, align 8, !tbaa !84
  %.not.i15 = icmp eq ptr %45, null
  br i1 %.not.i15, label %_ZN5arrow6StatusD2Ev.exit16, label %46, !prof !87

46:                                               ; preds = %_ZN5arrow6StatusD2Ev.exit14
  %47 = getelementptr inbounds nuw i8, ptr %45, i64 1
  %48 = load i8, ptr %47, align 1, !tbaa !88, !range !97, !noundef !98
  %49 = trunc nuw i8 %48 to i1
  br i1 %49, label %_ZN5arrow6StatusD2Ev.exit16, label %50

50:                                               ; preds = %46
  call void @_ZN5arrow6Status11DeleteStateEv(ptr noundef nonnull align 8 dereferenceable(8) %7) #24
  br label %_ZN5arrow6StatusD2Ev.exit16

_ZN5arrow6StatusD2Ev.exit16:                      ; preds = %_ZN5arrow6StatusD2Ev.exit14, %46, %50
  %51 = load ptr, ptr @_ZN5arrow7compute8internal12_GLOBAL__N_117kIndexOptionsTypeE, align 8, !tbaa !32
  call void @_ZN5arrow7compute16FunctionRegistry22AddFunctionOptionsTypeEPKNS0_19FunctionOptionsTypeEb(ptr dead_on_unwind nonnull writable sret(%"class.arrow::Status") align 8 %8, ptr noundef nonnull align 8 dereferenceable(8) %0, ptr noundef %51, i1 noundef zeroext false)
  %52 = load ptr, ptr %8, align 8, !tbaa !84
  %.not.i17 = icmp eq ptr %52, null
  br i1 %.not.i17, label %_ZN5arrow6StatusD2Ev.exit18, label %53, !prof !87

53:                                               ; preds = %_ZN5arrow6StatusD2Ev.exit16
  %54 = getelementptr inbounds nuw i8, ptr %52, i64 1
  %55 = load i8, ptr %54, align 1, !tbaa !88, !range !97, !noundef !98
  %56 = trunc nuw i8 %55 to i1
  br i1 %56, label %_ZN5arrow6StatusD2Ev.exit18, label %57

57:                                               ; preds = %53
  call void @_ZN5arrow6Status11DeleteStateEv(ptr noundef nonnull align 8 dereferenceable(8) %8) #24
  br label %_ZN5arrow6StatusD2Ev.exit18

_ZN5arrow6StatusD2Ev.exit18:                      ; preds = %_ZN5arrow6StatusD2Ev.exit16, %53, %57
  ret void
}